target datalayout = "e-m:e-p270:32:32-p271:32:32-p272:64:64-i64:64-i128:128-f80:128-n8:16:32:64-S128"
target triple = "x86_64-unknown-linux-gnu"

%"class.llvh::FoldingSetBucketIteratorImpl" = type { ptr }

; Function Attrs: mustprogress nounwind uwtable
define internal noundef ptr @_ZL10GetNextPtrPv(ptr noundef %NextInBucketPtr) #0 {
entry:
  %retval = alloca ptr, align 8
  %NextInBucketPtr.addr = alloca ptr, align 8
  store ptr %NextInBucketPtr, ptr %NextInBucketPtr.addr, align 8
  %0 = load ptr, ptr %NextInBucketPtr.addr, align 8
  %1 = ptrtoint ptr %0 to i64
  %and = and i64 %1, 1
  %tobool = icmp ne i64 %and, 0
  br i1 %tobool, label %if.then, label %if.end

if.then:                                          ; preds = %entry
  store ptr null, ptr %retval, align 8
  br label %return

if.end:                                           ; preds = %entry
  %2 = load ptr, ptr %NextInBucketPtr.addr, align 8
  store ptr %2, ptr %retval, align 8
  br label %return

return:                                           ; preds = %if.end, %if.then
  %3 = load ptr, ptr %retval, align 8
  ret ptr %3
}

; Function Attrs: mustprogress nounwind uwtable
define hidden void @_ZN4llvh28FoldingSetBucketIteratorImplC2EPPv(ptr noundef nonnull align 8 dereferenceable(8) %this, ptr noundef %Bucket) unnamed_addr #0 align 2 {
entry:
  %this.addr = alloca ptr, align 8
  %Bucket.addr = alloca ptr, align 8
  store ptr %this, ptr %this.addr, align 8
  store ptr %Bucket, ptr %Bucket.addr, align 8
  %this1 = load ptr, ptr %this.addr, align 8
  %0 = load ptr, ptr %Bucket.addr, align 8
  %1 = load ptr, ptr %0, align 8
  %tobool = icmp ne ptr %1, null
  br i1 %tobool, label %lor.lhs.false, label %cond.true

lor.lhs.false:                                    ; preds = %entry
  %2 = load ptr, ptr %Bucket.addr, align 8
  %3 = load ptr, ptr %2, align 8
  %call = call noundef ptr @_ZL10GetNextPtrPv(ptr noundef %3)
  %tobool2 = icmp ne ptr %call, null
  br i1 %tobool2, label %cond.false, label %cond.true

cond.true:                                        ; preds = %lor.lhs.false, %entry
  %4 = load ptr, ptr %Bucket.addr, align 8
  br label %cond.end

cond.false:                                       ; preds = %lor.lhs.false
  %5 = load ptr, ptr %Bucket.addr, align 8
  %6 = load ptr, ptr %5, align 8
  br label %cond.end

cond.end:                                         ; preds = %cond.false, %cond.true
  %cond = phi ptr [ %4, %cond.true ], [ %6, %cond.false ]
  %Ptr = getelementptr inbounds %"class.llvh::FoldingSetBucketIteratorImpl", ptr %this1, i32 0, i32 0
  store ptr %cond, ptr %Ptr, align 8
  ret void
}