; Function Attrs: mustprogress nofree norecurse nosync nounwind willreturn memory(argmem: readwrite) uwtable
define hidden void @_ZN4llvh28FoldingSetBucketIteratorImplC2EPPv(ptr nocapture noundef nonnull writeonly align 8 dereferenceable(8) %this, ptr noundef %Bucket) unnamed_addr #5 align 2 {
entry:
  %0 = load ptr, ptr %Bucket, align 8
  %tobool.not = icmp eq ptr %0, null
  %1 = ptrtoint ptr %0 to i64
  %and.i = and i64 %1, 1
  %tobool.not.i.not = icmp eq i64 %and.i, 0
  %spec.select = select i1 %tobool.not.i.not, ptr %0, ptr %Bucket
  %cond = select i1 %tobool.not, ptr %Bucket, ptr %spec.select
  store ptr %cond, ptr %this, align 8
  ret void
}